target datalayout = "e-m:e-p270:32:32-p271:32:32-p272:64:64-i64:64-i128:128-f80:128-n8:16:32:64-S128"
target triple = "x86_64-pc-linux-gnu"

%struct.darktable_t = type { %struct.dt_codepath_t, i32, i32, ptr, ptr, ptr, ptr, ptr, ptr, ptr, ptr, ptr, ptr, ptr, ptr, ptr, ptr, ptr, ptr, ptr, ptr, ptr, ptr, ptr, ptr, ptr, ptr, ptr, ptr, ptr, [64 x %struct.dt_pthread_mutex_t], %struct.dt_pthread_mutex_t, %struct.dt_pthread_mutex_t, %struct.dt_pthread_mutex_t, %struct.dt_pthread_mutex_t, %struct.dt_pthread_mutex_t, ptr, ptr, ptr, ptr, ptr, ptr, ptr, ptr, ptr, ptr, ptr, ptr, ptr, %struct.dt_lua_state_t, ptr, double, ptr, i32, [47 x i32], i32, i32, ptr, ptr, %struct.dt_sys_resources_t, %struct.dt_backthumb_t, %struct.dt_gimp_t }
%struct.dt_codepath_t = type { i8, [3 x i8] }
%struct.dt_pthread_mutex_t = type { %union.pthread_mutex_t }
%union.pthread_mutex_t = type { %struct.__pthread_mutex_s }
%struct.__pthread_mutex_s = type { i32, i32, i32, i32, i32, i16, i16, %struct.__pthread_internal_list }
%struct.__pthread_internal_list = type { ptr, ptr }
%struct.dt_lua_state_t = type { i32 }
%struct.dt_sys_resources_t = type { i64, i64, ptr, ptr, i32 }
%struct.dt_backthumb_t = type { double, double, i32, i32, i32, i32 }
%struct.dt_gimp_t = type { i32, ptr, ptr, i32, i32 }
%struct.dt_lib_module_t = type { %struct.dt_action_t, ptr, ptr, ptr, ptr, ptr, ptr, ptr, ptr, ptr, ptr, ptr, ptr, ptr, ptr, ptr, ptr, ptr, ptr, ptr, ptr, ptr, ptr, ptr, ptr, ptr, ptr, ptr, ptr, ptr, ptr, [128 x i8], ptr, ptr, i32, ptr, ptr, ptr, i32 }
%struct.dt_action_t = type { i32, ptr, ptr, ptr, ptr, ptr }
%struct.dt_lib_t = type { ptr, ptr, %struct.anon }
%struct.anon = type { %struct.anon.0, %struct.anon.1, %struct.anon.2, %struct.anon.3 }
%struct.anon.0 = type { ptr, ptr, ptr, ptr, ptr, i32, i32, i32, ptr, ptr, ptr, ptr, ptr }
%struct.anon.1 = type { ptr, ptr, i32 }
%struct.anon.2 = type { ptr }
%struct.anon.3 = type { i32 }
%struct._GList = type { ptr, ptr, ptr }

@darktable = external global %struct.darktable_t, align 8
@dt_lib_get_localized_name.module_names = internal global ptr null, align 8

; Function Attrs: nounwind uwtable
define ptr @dt_lib_get_localized_name(ptr noundef %0) #0 {
  %2 = alloca ptr, align 8
  %3 = alloca ptr, align 8
  %4 = alloca ptr, align 8
  store ptr %0, ptr %2, align 8, !tbaa !63
  %5 = load ptr, ptr @dt_lib_get_localized_name.module_names, align 8, !tbaa !206
  %6 = icmp eq ptr %5, null
  br i1 %6, label %7, label %42

7:                                                ; preds = %1
  %8 = call ptr @g_hash_table_new(ptr noundef @g_str_hash, ptr noundef @g_str_equal)
  store ptr %8, ptr @dt_lib_get_localized_name.module_names, align 8, !tbaa !206
  call void @llvm.lifetime.start.p0(i64 8, ptr %3) #12
  %9 = load ptr, ptr getelementptr inbounds nuw (%struct.darktable_t, ptr @darktable, i32 0, i32 10), align 8, !tbaa !79
  %10 = getelementptr inbounds nuw %struct.dt_lib_t, ptr %9, i32 0, i32 0
  %11 = load ptr, ptr %10, align 8, !tbaa !80
  store ptr %11, ptr %3, align 8, !tbaa !89
  br label %12

12:                                               ; preds = %39, %7
  %13 = load ptr, ptr %3, align 8, !tbaa !89
  %14 = icmp ne ptr %13, null
  br i1 %14, label %16, label %15

15:                                               ; preds = %12
  call void @llvm.lifetime.end.p0(i64 8, ptr %3) #12
  br label %41

16:                                               ; preds = %12
  call void @llvm.lifetime.start.p0(i64 8, ptr %4) #12
  %17 = load ptr, ptr %3, align 8, !tbaa !89
  %18 = getelementptr inbounds nuw %struct._GList, ptr %17, i32 0, i32 0
  %19 = load ptr, ptr %18, align 8, !tbaa !90
  store ptr %19, ptr %4, align 8, !tbaa !6
  %20 = load ptr, ptr @dt_lib_get_localized_name.module_names, align 8, !tbaa !206
  %21 = load ptr, ptr %4, align 8, !tbaa !6
  %22 = getelementptr inbounds nuw %struct.dt_lib_module_t, ptr %21, i32 0, i32 31
  %23 = getelementptr inbounds [128 x i8], ptr %22, i64 0, i64 0
  %24 = load ptr, ptr %4, align 8, !tbaa !6
  %25 = getelementptr inbounds nuw %struct.dt_lib_module_t, ptr %24, i32 0, i32 2
  %26 = load ptr, ptr %25, align 8, !tbaa !58
  %27 = load ptr, ptr %4, align 8, !tbaa !6
  %28 = call ptr %26(ptr noundef %27)
  %29 = call noalias ptr @g_strdup(ptr noundef %28)
  %30 = call i32 @g_hash_table_insert(ptr noundef %20, ptr noundef %23, ptr noundef %29)
  call void @llvm.lifetime.end.p0(i64 8, ptr %4) #12
  br label %31

31:                                               ; preds = %16
  %32 = load ptr, ptr %3, align 8, !tbaa !89
  %33 = icmp ne ptr %32, null
  br i1 %33, label %34, label %38

34:                                               ; preds = %31
  %35 = load ptr, ptr %3, align 8, !tbaa !89
  %36 = getelementptr inbounds nuw %struct._GList, ptr %35, i32 0, i32 1
  %37 = load ptr, ptr %36, align 8, !tbaa !93
  br label %39

38:                                               ; preds = %31
  br label %39

39:                                               ; preds = %38, %34
  %40 = phi ptr [ %37, %34 ], [ null, %38 ]
  store ptr %40, ptr %3, align 8, !tbaa !89
  br label %12

41:                                               ; preds = %15
  br label %42

42:                                               ; preds = %41, %1
  %43 = load ptr, ptr @dt_lib_get_localized_name.module_names, align 8, !tbaa !206
  %44 = load ptr, ptr %2, align 8, !tbaa !63
  %45 = call ptr @g_hash_table_lookup(ptr noundef %43, ptr noundef %44)
  ret ptr %45
}