; Function Attrs: nounwind uwtable
define ptr @dt_lib_get_localized_name(ptr noundef %0) local_unnamed_addr #0 {
  %2 = load ptr, ptr @dt_lib_get_localized_name.module_names, align 8, !tbaa !172
  %3 = icmp eq ptr %2, null
  br i1 %3, label %4, label %.loopexit

4:                                                ; preds = %1
  %5 = tail call ptr @g_hash_table_new(ptr noundef nonnull @g_str_hash, ptr noundef nonnull @g_str_equal) #19
  store ptr %5, ptr @dt_lib_get_localized_name.module_names, align 8, !tbaa !172
  %6 = load ptr, ptr getelementptr inbounds nuw (i8, ptr @darktable, i64 72), align 8, !tbaa !71
  %.08 = load ptr, ptr %6, align 8, !tbaa !72
  %.not9 = icmp eq ptr %.08, null
  br i1 %.not9, label %.loopexit, label %.lr.ph

.lr.ph:                                           ; preds = %4, %.lr.ph
  %.010 = phi ptr [ %.0, %.lr.ph ], [ %.08, %4 ]
  %7 = load ptr, ptr %.010, align 8, !tbaa !73
  %8 = load ptr, ptr @dt_lib_get_localized_name.module_names, align 8, !tbaa !172
  %9 = getelementptr inbounds nuw i8, ptr %7, i64 288
  %10 = getelementptr inbounds nuw i8, ptr %7, i64 56
  %11 = load ptr, ptr %10, align 8, !tbaa !17
  %12 = tail call ptr %11(ptr noundef %7) #19
  %13 = tail call noalias ptr @g_strdup(ptr noundef %12) #19
  %14 = tail call i32 @g_hash_table_insert(ptr noundef %8, ptr noundef nonnull %9, ptr noundef %13) #19
  %15 = getelementptr inbounds nuw i8, ptr %.010, i64 8
  %.0 = load ptr, ptr %15, align 8, !tbaa !72
  %.not = icmp eq ptr %.0, null
  br i1 %.not, label %.loopexit.loopexit, label %.lr.ph

.loopexit.loopexit:                               ; preds = %.lr.ph
  %.pre = load ptr, ptr @dt_lib_get_localized_name.module_names, align 8, !tbaa !172
  br label %.loopexit

.loopexit:                                        ; preds = %.loopexit.loopexit, %4, %1
  %16 = phi ptr [ %.pre, %.loopexit.loopexit ], [ %5, %4 ], [ %2, %1 ]
  %17 = tail call ptr @g_hash_table_lookup(ptr noundef %16, ptr noundef %0) #19
  ret ptr %17
}